target datalayout = "e-m:e-p270:32:32-p271:32:32-p272:64:64-i64:64-i128:128-f80:128-n8:16:32:64-S128"
target triple = "x86_64-pc-linux-gnu"

%struct.jpeg_compress_struct = type { ptr, ptr, ptr, ptr, i32, i32, ptr, i32, i32, i32, i32, double, i32, i32, i32, ptr, [4 x ptr], [4 x ptr], [4 x ptr], [16 x i8], [16 x i8], [16 x i8], i32, ptr, i32, i32, i32, i32, i32, i32, i32, i32, i32, i8, i8, i8, i16, i16, i32, i32, i32, i32, i32, i32, i32, [4 x ptr], i32, i32, i32, [10 x i32], i32, i32, i32, i32, ptr, ptr, ptr, ptr, ptr, ptr, ptr, ptr, ptr, ptr, i32 }
%struct.jpeg_error_mgr = type { ptr, ptr, ptr, ptr, ptr, i32, %union.anon, i32, i64, ptr, i32, ptr, i32, i32 }
%union.anon = type { [8 x i32], [48 x i8] }
%struct.ppm_source_struct = type { %struct.cjpeg_source_struct, ptr, ptr, i64, ptr, i32 }
%struct.cjpeg_source_struct = type { ptr, ptr, ptr, ptr, ptr, ptr, ptr, i32, i32 }

@rgb_pixelsize = internal constant [17 x i32] [i32 -1, i32 -1, i32 3, i32 -1, i32 -1, i32 -1, i32 3, i32 4, i32 3, i32 4, i32 4, i32 4, i32 4, i32 4, i32 4, i32 4, i32 -1], align 16
@rgb_red = internal constant [17 x i32] [i32 -1, i32 -1, i32 0, i32 -1, i32 -1, i32 -1, i32 0, i32 0, i32 2, i32 2, i32 3, i32 1, i32 0, i32 2, i32 3, i32 1, i32 -1], align 16
@rgb_green = internal constant [17 x i32] [i32 -1, i32 -1, i32 1, i32 -1, i32 -1, i32 -1, i32 1, i32 1, i32 1, i32 1, i32 2, i32 2, i32 1, i32 1, i32 2, i32 2, i32 -1], align 16
@rgb_blue = internal constant [17 x i32] [i32 -1, i32 -1, i32 2, i32 -1, i32 -1, i32 -1, i32 2, i32 2, i32 0, i32 0, i32 1, i32 3, i32 2, i32 0, i32 1, i32 3, i32 -1], align 16
@alpha_index = internal global [17 x i32] [i32 -1, i32 -1, i32 -1, i32 -1, i32 -1, i32 -1, i32 -1, i32 -1, i32 -1, i32 -1, i32 -1, i32 -1, i32 3, i32 3, i32 0, i32 0, i32 -1], align 16

; Function Attrs: nounwind uwtable
define internal i32 @get_gray_rgb_row(ptr noundef %0, ptr noundef %1) #0 {
  %3 = alloca ptr, align 8
  %4 = alloca ptr, align 8
  %5 = alloca ptr, align 8
  %6 = alloca ptr, align 8
  %7 = alloca ptr, align 8
  %8 = alloca ptr, align 8
  %9 = alloca i32, align 4
  %10 = alloca i32, align 4
  %11 = alloca i32, align 4
  %12 = alloca i32, align 4
  %13 = alloca i32, align 4
  %14 = alloca i32, align 4
  %15 = alloca i32, align 4
  store ptr %0, ptr %3, align 8, !tbaa !4
  store ptr %1, ptr %4, align 8, !tbaa !46
  call void @llvm.lifetime.start.p0(i64 8, ptr %5) #6
  %16 = load ptr, ptr %4, align 8, !tbaa !46
  store ptr %16, ptr %5, align 8, !tbaa !37
  call void @llvm.lifetime.start.p0(i64 8, ptr %6) #6
  call void @llvm.lifetime.start.p0(i64 8, ptr %7) #6
  call void @llvm.lifetime.start.p0(i64 8, ptr %8) #6
  %17 = load ptr, ptr %5, align 8, !tbaa !37
  %18 = getelementptr inbounds nuw %struct.ppm_source_struct, ptr %17, i32 0, i32 4
  %19 = load ptr, ptr %18, align 8, !tbaa !66
  store ptr %19, ptr %8, align 8, !tbaa !73
  call void @llvm.lifetime.start.p0(i64 4, ptr %9) #6
  call void @llvm.lifetime.start.p0(i64 4, ptr %10) #6
  %20 = load ptr, ptr %5, align 8, !tbaa !37
  %21 = getelementptr inbounds nuw %struct.ppm_source_struct, ptr %20, i32 0, i32 5
  %22 = load i32, ptr %21, align 8, !tbaa !53
  store i32 %22, ptr %10, align 4, !tbaa !49
  call void @llvm.lifetime.start.p0(i64 4, ptr %11) #6
  %23 = load ptr, ptr %3, align 8, !tbaa !4
  %24 = getelementptr inbounds nuw %struct.jpeg_compress_struct, ptr %23, i32 0, i32 10
  %25 = load i32, ptr %24, align 4, !tbaa !54
  %26 = zext i32 %25 to i64
  %27 = getelementptr inbounds nuw [17 x i32], ptr @rgb_red, i64 0, i64 %26
  %28 = load i32, ptr %27, align 4, !tbaa !49
  store i32 %28, ptr %11, align 4, !tbaa !49
  call void @llvm.lifetime.start.p0(i64 4, ptr %12) #6
  %29 = load ptr, ptr %3, align 8, !tbaa !4
  %30 = getelementptr inbounds nuw %struct.jpeg_compress_struct, ptr %29, i32 0, i32 10
  %31 = load i32, ptr %30, align 4, !tbaa !54
  %32 = zext i32 %31 to i64
  %33 = getelementptr inbounds nuw [17 x i32], ptr @rgb_green, i64 0, i64 %32
  %34 = load i32, ptr %33, align 4, !tbaa !49
  store i32 %34, ptr %12, align 4, !tbaa !49
  call void @llvm.lifetime.start.p0(i64 4, ptr %13) #6
  %35 = load ptr, ptr %3, align 8, !tbaa !4
  %36 = getelementptr inbounds nuw %struct.jpeg_compress_struct, ptr %35, i32 0, i32 10
  %37 = load i32, ptr %36, align 4, !tbaa !54
  %38 = zext i32 %37 to i64
  %39 = getelementptr inbounds nuw [17 x i32], ptr @rgb_blue, i64 0, i64 %38
  %40 = load i32, ptr %39, align 4, !tbaa !49
  store i32 %40, ptr %13, align 4, !tbaa !49
  call void @llvm.lifetime.start.p0(i64 4, ptr %14) #6
  %41 = load ptr, ptr %3, align 8, !tbaa !4
  %42 = getelementptr inbounds nuw %struct.jpeg_compress_struct, ptr %41, i32 0, i32 10
  %43 = load i32, ptr %42, align 4, !tbaa !54
  %44 = zext i32 %43 to i64
  %45 = getelementptr inbounds nuw [17 x i32], ptr @alpha_index, i64 0, i64 %44
  %46 = load i32, ptr %45, align 4, !tbaa !49
  store i32 %46, ptr %14, align 4, !tbaa !49
  call void @llvm.lifetime.start.p0(i64 4, ptr %15) #6
  %47 = load ptr, ptr %3, align 8, !tbaa !4
  %48 = getelementptr inbounds nuw %struct.jpeg_compress_struct, ptr %47, i32 0, i32 10
  %49 = load i32, ptr %48, align 4, !tbaa !54
  %50 = zext i32 %49 to i64
  %51 = getelementptr inbounds nuw [17 x i32], ptr @rgb_pixelsize, i64 0, i64 %50
  %52 = load i32, ptr %51, align 4, !tbaa !49
  store i32 %52, ptr %15, align 4, !tbaa !49
  %53 = load ptr, ptr %5, align 8, !tbaa !37
  %54 = getelementptr inbounds nuw %struct.ppm_source_struct, ptr %53, i32 0, i32 1
  %55 = load ptr, ptr %54, align 8, !tbaa !61
  %56 = load ptr, ptr %5, align 8, !tbaa !37
  %57 = getelementptr inbounds nuw %struct.ppm_source_struct, ptr %56, i32 0, i32 3
  %58 = load i64, ptr %57, align 8, !tbaa !60
  %59 = load ptr, ptr %5, align 8, !tbaa !37
  %60 = getelementptr inbounds nuw %struct.ppm_source_struct, ptr %59, i32 0, i32 0
  %61 = getelementptr inbounds nuw %struct.cjpeg_source_struct, ptr %60, i32 0, i32 3
  %62 = load ptr, ptr %61, align 8, !tbaa !48
  %63 = call i64 @fread(ptr noundef %55, i64 noundef 1, i64 noundef %58, ptr noundef %62)
  %64 = load ptr, ptr %5, align 8, !tbaa !37
  %65 = getelementptr inbounds nuw %struct.ppm_source_struct, ptr %64, i32 0, i32 3
  %66 = load i64, ptr %65, align 8, !tbaa !60
  %67 = icmp eq i64 %63, %66
  br i1 %67, label %79, label %68

68:                                               ; preds = %2
  %69 = load ptr, ptr %3, align 8, !tbaa !4
  %70 = getelementptr inbounds nuw %struct.jpeg_compress_struct, ptr %69, i32 0, i32 0
  %71 = load ptr, ptr %70, align 8, !tbaa !27
  %72 = getelementptr inbounds nuw %struct.jpeg_error_mgr, ptr %71, i32 0, i32 5
  store i32 43, ptr %72, align 8, !tbaa !28
  %73 = load ptr, ptr %3, align 8, !tbaa !4
  %74 = getelementptr inbounds nuw %struct.jpeg_compress_struct, ptr %73, i32 0, i32 0
  %75 = load ptr, ptr %74, align 8, !tbaa !27
  %76 = getelementptr inbounds nuw %struct.jpeg_error_mgr, ptr %75, i32 0, i32 0
  %77 = load ptr, ptr %76, align 8, !tbaa !33
  %78 = load ptr, ptr %3, align 8, !tbaa !4
  call void %77(ptr noundef %78)
  br label %79

79:                                               ; preds = %68, %2
  %80 = load ptr, ptr %5, align 8, !tbaa !37
  %81 = getelementptr inbounds nuw %struct.ppm_source_struct, ptr %80, i32 0, i32 0
  %82 = getelementptr inbounds nuw %struct.cjpeg_source_struct, ptr %81, i32 0, i32 4
  %83 = load ptr, ptr %82, align 8, !tbaa !63
  %84 = getelementptr inbounds ptr, ptr %83, i64 0
  %85 = load ptr, ptr %84, align 8, !tbaa !73
  store ptr %85, ptr %6, align 8, !tbaa !73
  %86 = load ptr, ptr %5, align 8, !tbaa !37
  %87 = getelementptr inbounds nuw %struct.ppm_source_struct, ptr %86, i32 0, i32 1
  %88 = load ptr, ptr %87, align 8, !tbaa !61
  store ptr %88, ptr %7, align 8, !tbaa !73
  %89 = load i32, ptr %10, align 4, !tbaa !49
  %90 = load ptr, ptr %3, align 8, !tbaa !4
  %91 = getelementptr inbounds nuw %struct.jpeg_compress_struct, ptr %90, i32 0, i32 12
  %92 = load i32, ptr %91, align 8, !tbaa !9
  %93 = shl i32 1, %92
  %94 = sub i32 %93, 1
  %95 = icmp eq i32 %89, %94
  br i1 %95, label %96, label %168

96:                                               ; preds = %79
  %97 = load i32, ptr %14, align 4, !tbaa !49
  %98 = icmp sge i32 %97, 0
  br i1 %98, label %99, label %136

99:                                               ; preds = %96
  %100 = load ptr, ptr %3, align 8, !tbaa !4
  %101 = getelementptr inbounds nuw %struct.jpeg_compress_struct, ptr %100, i32 0, i32 7
  %102 = load i32, ptr %101, align 8, !tbaa !51
  store i32 %102, ptr %9, align 4, !tbaa !49
  br label %103

103:                                              ; preds = %132, %99
  %104 = load i32, ptr %9, align 4, !tbaa !49
  %105 = icmp ugt i32 %104, 0
  br i1 %105, label %106, label %135

106:                                              ; preds = %103
  %107 = load ptr, ptr %7, align 8, !tbaa !73
  %108 = getelementptr inbounds nuw i8, ptr %107, i32 1
  store ptr %108, ptr %7, align 8, !tbaa !73
  %109 = load i8, ptr %107, align 1, !tbaa !32
  %110 = load ptr, ptr %6, align 8, !tbaa !73
  %111 = load i32, ptr %13, align 4, !tbaa !49
  %112 = sext i32 %111 to i64
  %113 = getelementptr inbounds i8, ptr %110, i64 %112
  store i8 %109, ptr %113, align 1, !tbaa !32
  %114 = load ptr, ptr %6, align 8, !tbaa !73
  %115 = load i32, ptr %12, align 4, !tbaa !49
  %116 = sext i32 %115 to i64
  %117 = getelementptr inbounds i8, ptr %114, i64 %116
  store i8 %109, ptr %117, align 1, !tbaa !32
  %118 = load ptr, ptr %6, align 8, !tbaa !73
  %119 = load i32, ptr %11, align 4, !tbaa !49
  %120 = sext i32 %119 to i64
  %121 = getelementptr inbounds i8, ptr %118, i64 %120
  store i8 %109, ptr %121, align 1, !tbaa !32
  %122 = load i32, ptr %10, align 4, !tbaa !49
  %123 = trunc i32 %122 to i8
  %124 = load ptr, ptr %6, align 8, !tbaa !73
  %125 = load i32, ptr %14, align 4, !tbaa !49
  %126 = sext i32 %125 to i64
  %127 = getelementptr inbounds i8, ptr %124, i64 %126
  store i8 %123, ptr %127, align 1, !tbaa !32
  %128 = load i32, ptr %15, align 4, !tbaa !49
  %129 = load ptr, ptr %6, align 8, !tbaa !73
  %130 = sext i32 %128 to i64
  %131 = getelementptr inbounds i8, ptr %129, i64 %130
  store ptr %131, ptr %6, align 8, !tbaa !73
  br label %132

132:                                              ; preds = %106
  %133 = load i32, ptr %9, align 4, !tbaa !49
  %134 = add i32 %133, -1
  store i32 %134, ptr %9, align 4, !tbaa !49
  br label %103, !llvm.loop !91

135:                                              ; preds = %103
  br label %167

136:                                              ; preds = %96
  %137 = load ptr, ptr %3, align 8, !tbaa !4
  %138 = getelementptr inbounds nuw %struct.jpeg_compress_struct, ptr %137, i32 0, i32 7
  %139 = load i32, ptr %138, align 8, !tbaa !51
  store i32 %139, ptr %9, align 4, !tbaa !49
  br label %140

140:                                              ; preds = %163, %136
  %141 = load i32, ptr %9, align 4, !tbaa !49
  %142 = icmp ugt i32 %141, 0
  br i1 %142, label %143, label %166

143:                                              ; preds = %140
  %144 = load ptr, ptr %7, align 8, !tbaa !73
  %145 = getelementptr inbounds nuw i8, ptr %144, i32 1
  store ptr %145, ptr %7, align 8, !tbaa !73
  %146 = load i8, ptr %144, align 1, !tbaa !32
  %147 = load ptr, ptr %6, align 8, !tbaa !73
  %148 = load i32, ptr %13, align 4, !tbaa !49
  %149 = sext i32 %148 to i64
  %150 = getelementptr inbounds i8, ptr %147, i64 %149
  store i8 %146, ptr %150, align 1, !tbaa !32
  %151 = load ptr, ptr %6, align 8, !tbaa !73
  %152 = load i32, ptr %12, align 4, !tbaa !49
  %153 = sext i32 %152 to i64
  %154 = getelementptr inbounds i8, ptr %151, i64 %153
  store i8 %146, ptr %154, align 1, !tbaa !32
  %155 = load ptr, ptr %6, align 8, !tbaa !73
  %156 = load i32, ptr %11, align 4, !tbaa !49
  %157 = sext i32 %156 to i64
  %158 = getelementptr inbounds i8, ptr %155, i64 %157
  store i8 %146, ptr %158, align 1, !tbaa !32
  %159 = load i32, ptr %15, align 4, !tbaa !49
  %160 = load ptr, ptr %6, align 8, !tbaa !73
  %161 = sext i32 %159 to i64
  %162 = getelementptr inbounds i8, ptr %160, i64 %161
  store ptr %162, ptr %6, align 8, !tbaa !73
  br label %163

163:                                              ; preds = %143
  %164 = load i32, ptr %9, align 4, !tbaa !49
  %165 = add i32 %164, -1
  store i32 %165, ptr %9, align 4, !tbaa !49
  br label %140, !llvm.loop !92

166:                                              ; preds = %140
  br label %167

167:                                              ; preds = %166, %135
  br label %254

168:                                              ; preds = %79
  %169 = load i32, ptr %14, align 4, !tbaa !49
  %170 = icmp sge i32 %169, 0
  br i1 %170, label %171, label %217

171:                                              ; preds = %168
  %172 = load ptr, ptr %3, align 8, !tbaa !4
  %173 = getelementptr inbounds nuw %struct.jpeg_compress_struct, ptr %172, i32 0, i32 7
  %174 = load i32, ptr %173, align 8, !tbaa !51
  store i32 %174, ptr %9, align 4, !tbaa !49
  br label %175

175:                                              ; preds = %213, %171
  %176 = load i32, ptr %9, align 4, !tbaa !49
  %177 = icmp ugt i32 %176, 0
  br i1 %177, label %178, label %216

178:                                              ; preds = %175
  %179 = load ptr, ptr %8, align 8, !tbaa !73
  %180 = load ptr, ptr %7, align 8, !tbaa !73
  %181 = getelementptr inbounds nuw i8, ptr %180, i32 1
  store ptr %181, ptr %7, align 8, !tbaa !73
  %182 = load i8, ptr %180, align 1, !tbaa !32
  %183 = zext i8 %182 to i32
  %184 = sext i32 %183 to i64
  %185 = getelementptr inbounds i8, ptr %179, i64 %184
  %186 = load i8, ptr %185, align 1, !tbaa !32
  %187 = load ptr, ptr %6, align 8, !tbaa !73
  %188 = load i32, ptr %13, align 4, !tbaa !49
  %189 = sext i32 %188 to i64
  %190 = getelementptr inbounds i8, ptr %187, i64 %189
  store i8 %186, ptr %190, align 1, !tbaa !32
  %191 = load ptr, ptr %6, align 8, !tbaa !73
  %192 = load i32, ptr %12, align 4, !tbaa !49
  %193 = sext i32 %192 to i64
  %194 = getelementptr inbounds i8, ptr %191, i64 %193
  store i8 %186, ptr %194, align 1, !tbaa !32
  %195 = load ptr, ptr %6, align 8, !tbaa !73
  %196 = load i32, ptr %11, align 4, !tbaa !49
  %197 = sext i32 %196 to i64
  %198 = getelementptr inbounds i8, ptr %195, i64 %197
  store i8 %186, ptr %198, align 1, !tbaa !32
  %199 = load ptr, ptr %3, align 8, !tbaa !4
  %200 = getelementptr inbounds nuw %struct.jpeg_compress_struct, ptr %199, i32 0, i32 12
  %201 = load i32, ptr %200, align 8, !tbaa !9
  %202 = shl i32 1, %201
  %203 = sub nsw i32 %202, 1
  %204 = trunc i32 %203 to i8
  %205 = load ptr, ptr %6, align 8, !tbaa !73
  %206 = load i32, ptr %14, align 4, !tbaa !49
  %207 = sext i32 %206 to i64
  %208 = getelementptr inbounds i8, ptr %205, i64 %207
  store i8 %204, ptr %208, align 1, !tbaa !32
  %209 = load i32, ptr %15, align 4, !tbaa !49
  %210 = load ptr, ptr %6, align 8, !tbaa !73
  %211 = sext i32 %209 to i64
  %212 = getelementptr inbounds i8, ptr %210, i64 %211
  store ptr %212, ptr %6, align 8, !tbaa !73
  br label %213

213:                                              ; preds = %178
  %214 = load i32, ptr %9, align 4, !tbaa !49
  %215 = add i32 %214, -1
  store i32 %215, ptr %9, align 4, !tbaa !49
  br label %175, !llvm.loop !93

216:                                              ; preds = %175
  br label %253

217:                                              ; preds = %168
  %218 = load ptr, ptr %3, align 8, !tbaa !4
  %219 = getelementptr inbounds nuw %struct.jpeg_compress_struct, ptr %218, i32 0, i32 7
  %220 = load i32, ptr %219, align 8, !tbaa !51
  store i32 %220, ptr %9, align 4, !tbaa !49
  br label %221

221:                                              ; preds = %249, %217
  %222 = load i32, ptr %9, align 4, !tbaa !49
  %223 = icmp ugt i32 %222, 0
  br i1 %223, label %224, label %252

224:                                              ; preds = %221
  %225 = load ptr, ptr %8, align 8, !tbaa !73
  %226 = load ptr, ptr %7, align 8, !tbaa !73
  %227 = getelementptr inbounds nuw i8, ptr %226, i32 1
  store ptr %227, ptr %7, align 8, !tbaa !73
  %228 = load i8, ptr %226, align 1, !tbaa !32
  %229 = zext i8 %228 to i32
  %230 = sext i32 %229 to i64
  %231 = getelementptr inbounds i8, ptr %225, i64 %230
  %232 = load i8, ptr %231, align 1, !tbaa !32
  %233 = load ptr, ptr %6, align 8, !tbaa !73
  %234 = load i32, ptr %13, align 4, !tbaa !49
  %235 = sext i32 %234 to i64
  %236 = getelementptr inbounds i8, ptr %233, i64 %235
  store i8 %232, ptr %236, align 1, !tbaa !32
  %237 = load ptr, ptr %6, align 8, !tbaa !73
  %238 = load i32, ptr %12, align 4, !tbaa !49
  %239 = sext i32 %238 to i64
  %240 = getelementptr inbounds i8, ptr %237, i64 %239
  store i8 %232, ptr %240, align 1, !tbaa !32
  %241 = load ptr, ptr %6, align 8, !tbaa !73
  %242 = load i32, ptr %11, align 4, !tbaa !49
  %243 = sext i32 %242 to i64
  %244 = getelementptr inbounds i8, ptr %241, i64 %243
  store i8 %232, ptr %244, align 1, !tbaa !32
  %245 = load i32, ptr %15, align 4, !tbaa !49
  %246 = load ptr, ptr %6, align 8, !tbaa !73
  %247 = sext i32 %245 to i64
  %248 = getelementptr inbounds i8, ptr %246, i64 %247
  store ptr %248, ptr %6, align 8, !tbaa !73
  br label %249

249:                                              ; preds = %224
  %250 = load i32, ptr %9, align 4, !tbaa !49
  %251 = add i32 %250, -1
  store i32 %251, ptr %9, align 4, !tbaa !49
  br label %221, !llvm.loop !94

252:                                              ; preds = %221
  br label %253

253:                                              ; preds = %252, %216
  br label %254

254:                                              ; preds = %253, %167
  call void @llvm.lifetime.end.p0(i64 4, ptr %15) #6
  call void @llvm.lifetime.end.p0(i64 4, ptr %14) #6
  call void @llvm.lifetime.end.p0(i64 4, ptr %13) #6
  call void @llvm.lifetime.end.p0(i64 4, ptr %12) #6
  call void @llvm.lifetime.end.p0(i64 4, ptr %11) #6
  call void @llvm.lifetime.end.p0(i64 4, ptr %10) #6
  call void @llvm.lifetime.end.p0(i64 4, ptr %9) #6
  call void @llvm.lifetime.end.p0(i64 8, ptr %8) #6
  call void @llvm.lifetime.end.p0(i64 8, ptr %7) #6
  call void @llvm.lifetime.end.p0(i64 8, ptr %6) #6
  call void @llvm.lifetime.end.p0(i64 8, ptr %5) #6
  ret i32 1
}