; Function Attrs: nounwind uwtable
define internal noundef i32 @get_gray_rgb_row(ptr noundef %0, ptr noundef readonly captures(none) %1) #0 {
  %3 = getelementptr inbounds nuw i8, ptr %1, i64 88
  %4 = load ptr, ptr %3, align 8, !tbaa !59
  %5 = getelementptr inbounds nuw i8, ptr %1, i64 96
  %6 = load i32, ptr %5, align 8, !tbaa !47
  %7 = getelementptr inbounds nuw i8, ptr %0, i64 60
  %8 = load i32, ptr %7, align 4, !tbaa !48
  %9 = zext i32 %8 to i64
  %10 = getelementptr inbounds nuw [17 x i32], ptr @rgb_red, i64 0, i64 %9
  %11 = load i32, ptr %10, align 4, !tbaa !49
  %12 = getelementptr inbounds nuw [17 x i32], ptr @rgb_green, i64 0, i64 %9
  %13 = load i32, ptr %12, align 4, !tbaa !49
  %14 = getelementptr inbounds nuw [17 x i32], ptr @rgb_blue, i64 0, i64 %9
  %15 = load i32, ptr %14, align 4, !tbaa !49
  %16 = getelementptr inbounds nuw [17 x i32], ptr @alpha_index, i64 0, i64 %9
  %17 = load i32, ptr %16, align 4, !tbaa !49
  %18 = getelementptr inbounds nuw [17 x i32], ptr @rgb_pixelsize, i64 0, i64 %9
  %19 = load i32, ptr %18, align 4, !tbaa !49
  %20 = getelementptr inbounds nuw i8, ptr %1, i64 64
  %21 = load ptr, ptr %20, align 8, !tbaa !54
  %22 = getelementptr inbounds nuw i8, ptr %1, i64 80
  %23 = load i64, ptr %22, align 8, !tbaa !53
  %24 = getelementptr inbounds nuw i8, ptr %1, i64 24
  %25 = load ptr, ptr %24, align 8, !tbaa !43
  %26 = tail call i64 @fread(ptr noundef %21, i64 noundef 1, i64 noundef %23, ptr noundef %25)
  %27 = load i64, ptr %22, align 8, !tbaa !53
  %28 = icmp eq i64 %26, %27
  br i1 %28, label %33, label %29

29:                                               ; preds = %2
  %30 = load ptr, ptr %0, align 8, !tbaa !25
  %31 = getelementptr inbounds nuw i8, ptr %30, i64 40
  store i32 43, ptr %31, align 8, !tbaa !26
  %32 = load ptr, ptr %30, align 8, !tbaa !31
  tail call void %32(ptr noundef nonnull %0) #6
  br label %33

33:                                               ; preds = %29, %2
  %34 = getelementptr inbounds nuw i8, ptr %1, i64 32
  %35 = load ptr, ptr %34, align 8, !tbaa !57
  %36 = load ptr, ptr %35, align 8, !tbaa !63
  %37 = load ptr, ptr %20, align 8, !tbaa !54
  %38 = getelementptr inbounds nuw i8, ptr %0, i64 72
  %39 = load i32, ptr %38, align 8, !tbaa !4
  %notmask = shl nsw i32 -1, %39
  %40 = xor i32 %notmask, %6
  %41 = icmp eq i32 %40, -1
  %42 = and i64 %9, 4294967292
  %43 = icmp eq i64 %42, 12
  %44 = getelementptr inbounds nuw i8, ptr %0, i64 48
  %45 = load i32, ptr %44, align 8, !tbaa !45
  %.not90108 = icmp eq i32 %45, 0
  br i1 %41, label %46, label %76

46:                                               ; preds = %33
  br i1 %43, label %47, label %63

47:                                               ; preds = %46
  br i1 %.not90108, label %.loopexit, label %.lr.ph112

.lr.ph112:                                        ; preds = %47
  %48 = sext i32 %15 to i64
  %49 = sext i32 %13 to i64
  %50 = sext i32 %11 to i64
  %51 = trunc i32 %6 to i8
  %52 = zext nneg i32 %17 to i64
  %53 = sext i32 %19 to i64
  br label %54

54:                                               ; preds = %.lr.ph112, %54
  %.0111 = phi ptr [ %36, %.lr.ph112 ], [ %61, %54 ]
  %.076110 = phi ptr [ %37, %.lr.ph112 ], [ %55, %54 ]
  %.080109 = phi i32 [ %45, %.lr.ph112 ], [ %62, %54 ]
  %55 = getelementptr inbounds nuw i8, ptr %.076110, i64 1
  %56 = load i8, ptr %.076110, align 1, !tbaa !30
  %57 = getelementptr inbounds i8, ptr %.0111, i64 %48
  store i8 %56, ptr %57, align 1, !tbaa !30
  %58 = getelementptr inbounds i8, ptr %.0111, i64 %49
  store i8 %56, ptr %58, align 1, !tbaa !30
  %59 = getelementptr inbounds i8, ptr %.0111, i64 %50
  store i8 %56, ptr %59, align 1, !tbaa !30
  %60 = getelementptr inbounds nuw i8, ptr %.0111, i64 %52
  store i8 %51, ptr %60, align 1, !tbaa !30
  %61 = getelementptr inbounds i8, ptr %.0111, i64 %53
  %62 = add i32 %.080109, -1
  %.not90 = icmp eq i32 %62, 0
  br i1 %.not90, label %.loopexit, label %54, !llvm.loop !81

63:                                               ; preds = %46
  br i1 %.not90108, label %.loopexit, label %.lr.ph107

.lr.ph107:                                        ; preds = %63
  %64 = sext i32 %15 to i64
  %65 = sext i32 %13 to i64
  %66 = sext i32 %11 to i64
  %67 = sext i32 %19 to i64
  br label %68

68:                                               ; preds = %.lr.ph107, %68
  %.1106 = phi ptr [ %36, %.lr.ph107 ], [ %74, %68 ]
  %.177105 = phi ptr [ %37, %.lr.ph107 ], [ %69, %68 ]
  %.181104 = phi i32 [ %45, %.lr.ph107 ], [ %75, %68 ]
  %69 = getelementptr inbounds nuw i8, ptr %.177105, i64 1
  %70 = load i8, ptr %.177105, align 1, !tbaa !30
  %71 = getelementptr inbounds i8, ptr %.1106, i64 %64
  store i8 %70, ptr %71, align 1, !tbaa !30
  %72 = getelementptr inbounds i8, ptr %.1106, i64 %65
  store i8 %70, ptr %72, align 1, !tbaa !30
  %73 = getelementptr inbounds i8, ptr %.1106, i64 %66
  store i8 %70, ptr %73, align 1, !tbaa !30
  %74 = getelementptr inbounds i8, ptr %.1106, i64 %67
  %75 = add i32 %.181104, -1
  %.not89 = icmp eq i32 %75, 0
  br i1 %.not89, label %.loopexit, label %68, !llvm.loop !82

76:                                               ; preds = %33
  br i1 %43, label %77, label %98

77:                                               ; preds = %76
  br i1 %.not90108, label %.loopexit, label %.lr.ph102

.lr.ph102:                                        ; preds = %77
  %78 = sext i32 %15 to i64
  %79 = sext i32 %13 to i64
  %80 = sext i32 %11 to i64
  %81 = zext nneg i32 %17 to i64
  %82 = sext i32 %19 to i64
  br label %83

83:                                               ; preds = %.lr.ph102, %83
  %.2101 = phi ptr [ %36, %.lr.ph102 ], [ %96, %83 ]
  %.278100 = phi ptr [ %37, %.lr.ph102 ], [ %84, %83 ]
  %.28299 = phi i32 [ %45, %.lr.ph102 ], [ %97, %83 ]
  %84 = getelementptr inbounds nuw i8, ptr %.278100, i64 1
  %85 = load i8, ptr %.278100, align 1, !tbaa !30
  %86 = zext i8 %85 to i64
  %87 = getelementptr inbounds nuw i8, ptr %4, i64 %86
  %88 = load i8, ptr %87, align 1, !tbaa !30
  %89 = getelementptr inbounds i8, ptr %.2101, i64 %78
  store i8 %88, ptr %89, align 1, !tbaa !30
  %90 = getelementptr inbounds i8, ptr %.2101, i64 %79
  store i8 %88, ptr %90, align 1, !tbaa !30
  %91 = getelementptr inbounds i8, ptr %.2101, i64 %80
  store i8 %88, ptr %91, align 1, !tbaa !30
  %92 = load i32, ptr %38, align 8, !tbaa !4
  %notmask88 = shl nsw i32 -1, %92
  %93 = trunc i32 %notmask88 to i8
  %94 = xor i8 %93, -1
  %95 = getelementptr inbounds nuw i8, ptr %.2101, i64 %81
  store i8 %94, ptr %95, align 1, !tbaa !30
  %96 = getelementptr inbounds i8, ptr %.2101, i64 %82
  %97 = add i32 %.28299, -1
  %.not87 = icmp eq i32 %97, 0
  br i1 %.not87, label %.loopexit, label %83, !llvm.loop !83

98:                                               ; preds = %76
  br i1 %.not90108, label %.loopexit, label %.lr.ph

.lr.ph:                                           ; preds = %98
  %99 = sext i32 %15 to i64
  %100 = sext i32 %13 to i64
  %101 = sext i32 %11 to i64
  %102 = sext i32 %19 to i64
  br label %103

103:                                              ; preds = %.lr.ph, %103
  %.397 = phi ptr [ %36, %.lr.ph ], [ %112, %103 ]
  %.37996 = phi ptr [ %37, %.lr.ph ], [ %104, %103 ]
  %.38395 = phi i32 [ %45, %.lr.ph ], [ %113, %103 ]
  %104 = getelementptr inbounds nuw i8, ptr %.37996, i64 1
  %105 = load i8, ptr %.37996, align 1, !tbaa !30
  %106 = zext i8 %105 to i64
  %107 = getelementptr inbounds nuw i8, ptr %4, i64 %106
  %108 = load i8, ptr %107, align 1, !tbaa !30
  %109 = getelementptr inbounds i8, ptr %.397, i64 %99
  store i8 %108, ptr %109, align 1, !tbaa !30
  %110 = getelementptr inbounds i8, ptr %.397, i64 %100
  store i8 %108, ptr %110, align 1, !tbaa !30
  %111 = getelementptr inbounds i8, ptr %.397, i64 %101
  store i8 %108, ptr %111, align 1, !tbaa !30
  %112 = getelementptr inbounds i8, ptr %.397, i64 %102
  %113 = add i32 %.38395, -1
  %.not = icmp eq i32 %113, 0
  br i1 %.not, label %.loopexit, label %103, !llvm.loop !84

.loopexit:                                        ; preds = %103, %83, %68, %54, %98, %77, %63, %47
  ret i32 1
}